target datalayout = "e-m:e-p270:32:32-p271:32:32-p272:64:64-i64:64-i128:128-f80:128-n8:16:32:64-S128"
target triple = "x86_64-pc-linux-gnu"

%struct.H5E_msg_t = type { i8, ptr, i32, ptr }

@H5E_init_g = external global i8, align 1
@H5_libterm_g = external global i8, align 1
@H5_H5E_msg_t_reg_free_list = internal global { i8, [3 x i8], i32, i32, [4 x i8], ptr, i64, ptr } { i8 0, [3 x i8] zeroinitializer, i32 0, i32 0, [4 x i8] zeroinitializer, ptr @.str.386, i64 32, ptr null }, align 8

; Function Attrs: nounwind uwtable
define internal void @H5E__free_msg(ptr noundef %0) #0 {
  %2 = alloca ptr, align 8
  store ptr %0, ptr %2, align 8, !tbaa !39
  %3 = load i8, ptr @H5E_init_g, align 1, !tbaa !7, !range !9, !noundef !10
  %4 = trunc i8 %3 to i1
  br i1 %4, label %9, label %5

5:                                                ; preds = %1
  %6 = load i8, ptr @H5_libterm_g, align 1, !tbaa !7, !range !9, !noundef !10
  %7 = trunc i8 %6 to i1
  %8 = xor i1 %7, true
  br label %9

9:                                                ; preds = %5, %1
  %10 = phi i1 [ true, %1 ], [ %8, %5 ]
  %11 = xor i1 %10, true
  %12 = xor i1 %11, true
  %13 = zext i1 %12 to i32
  %14 = sext i32 %13 to i64
  %15 = call i64 @llvm.expect.i64(i64 %14, i64 1)
  %16 = icmp ne i64 %15, 0
  br i1 %16, label %17, label %26

17:                                               ; preds = %9
  %18 = load ptr, ptr %2, align 8, !tbaa !39
  %19 = getelementptr inbounds nuw %struct.H5E_msg_t, ptr %18, i32 0, i32 1
  %20 = load ptr, ptr %19, align 8, !tbaa !45
  %21 = call ptr @H5MM_xfree_const(ptr noundef %20)
  %22 = load ptr, ptr %2, align 8, !tbaa !39
  %23 = getelementptr inbounds nuw %struct.H5E_msg_t, ptr %22, i32 0, i32 1
  store ptr %21, ptr %23, align 8, !tbaa !45
  %24 = load ptr, ptr %2, align 8, !tbaa !39
  %25 = call ptr @H5FL_reg_free(ptr noundef @H5_H5E_msg_t_reg_free_list, ptr noundef %24)
  store ptr %25, ptr %2, align 8, !tbaa !39
  br label %26

26:                                               ; preds = %17, %9
  ret void
}

; Function Attrs: nounwind uwtable
define internal i32 @H5E__close_msg(ptr noundef %0, ptr noundef %1) #0 {
  %3 = alloca ptr, align 8
  %4 = alloca ptr, align 8
  store ptr %0, ptr %3, align 8, !tbaa !39
  store ptr %1, ptr %4, align 8, !tbaa !49
  %5 = load i8, ptr @H5E_init_g, align 1, !tbaa !7, !range !9, !noundef !10
  %6 = trunc i8 %5 to i1
  br i1 %6, label %11, label %7

7:                                                ; preds = %2
  %8 = load i8, ptr @H5_libterm_g, align 1, !tbaa !7, !range !9, !noundef !10
  %9 = trunc i8 %8 to i1
  %10 = xor i1 %9, true
  br label %11

11:                                               ; preds = %7, %2
  %12 = phi i1 [ true, %2 ], [ %10, %7 ]
  %13 = xor i1 %12, true
  %14 = xor i1 %13, true
  %15 = zext i1 %14 to i32
  %16 = sext i32 %15 to i64
  %17 = call i64 @llvm.expect.i64(i64 %16, i64 1)
  %18 = icmp ne i64 %17, 0
  br i1 %18, label %19, label %27

19:                                               ; preds = %11
  %20 = load ptr, ptr %3, align 8, !tbaa !39
  %21 = getelementptr inbounds nuw %struct.H5E_msg_t, ptr %20, i32 0, i32 0
  %22 = load i8, ptr %21, align 8, !tbaa !41, !range !9, !noundef !10
  %23 = trunc i8 %22 to i1
  br i1 %23, label %24, label %26

24:                                               ; preds = %19
  %25 = load ptr, ptr %3, align 8, !tbaa !39
  call void @H5E__free_msg(ptr noundef %25)
  br label %26

26:                                               ; preds = %24, %19
  br label %27

27:                                               ; preds = %26, %11
  ret i32 0
}