; Function Attrs: nounwind uwtable
define internal noundef i32 @H5E__close_msg(ptr noundef %0, ptr readnone captures(none) %1) #0 {
  %3 = load i8, ptr @H5E_init_g, align 1, !tbaa !3, !range !7, !noundef !8
  %4 = trunc nuw i8 %3 to i1
  %5 = load i8, ptr @H5_libterm_g, align 1, !range !7
  %6 = trunc nuw i8 %5 to i1
  %7 = xor i1 %6, true
  %8 = select i1 %4, i1 true, i1 %7
  br i1 %8, label %9, label %16, !prof !9

9:                                                ; preds = %2
  %10 = load i8, ptr %0, align 8, !tbaa !43, !range !7, !noundef !8
  %11 = trunc nuw i8 %10 to i1
  br i1 %11, label %H5E__free_msg.exit, label %16

H5E__free_msg.exit:                               ; preds = %9
  %12 = getelementptr inbounds nuw i8, ptr %0, i64 8
  %13 = load ptr, ptr %12, align 8, !tbaa !48
  %14 = tail call ptr @H5MM_xfree_const(ptr noundef %13) #16
  store ptr %14, ptr %12, align 8, !tbaa !48
  %15 = tail call ptr @H5FL_reg_free(ptr noundef nonnull @H5_H5E_msg_t_reg_free_list, ptr noundef nonnull %0) #16
  br label %16

16:                                               ; preds = %9, %H5E__free_msg.exit, %2
  ret i32 0
}